target datalayout = "e-m:e-p270:32:32-p271:32:32-p272:64:64-i64:64-i128:128-f80:128-n8:16:32:64-S128"
target triple = "x86_64-pc-linux-gnu"

%struct._object = type { %union.anon.41, ptr }
%union.anon.41 = type { i64 }
%struct.PyASCIIObject = type { %struct._object, i64, i64, %struct.anon.46 }
%struct.anon.46 = type { i16, i16 }
%struct.PyCompactUnicodeObject = type { %struct.PyASCIIObject, i64, ptr }
%struct.PyUnicodeObject = type { %struct.PyCompactUnicodeObject, %union.anon.806 }
%union.anon.806 = type { ptr }
%struct._PyUnicodeWriter = type { ptr, ptr, i32, i32, i64, i64, i64, i32, i8, i8 }

; Function Attrs: inlinehint nounwind uwtable
define internal i32 @PyUnicode_IS_ASCII(ptr noundef %0) #2 {
  %2 = alloca ptr, align 8
  store ptr %0, ptr %2, align 8, !tbaa !4
  %3 = load ptr, ptr %2, align 8, !tbaa !4
  %4 = getelementptr inbounds nuw %struct.PyASCIIObject, ptr %3, i32 0, i32 3
  %5 = getelementptr inbounds nuw %struct.anon.46, ptr %4, i32 0, i32 1
  %6 = load i16, ptr %5, align 2
  %7 = lshr i16 %6, 4
  %8 = and i16 %7, 1
  %9 = zext i16 %8 to i32
  ret i32 %9
}

; Function Attrs: inlinehint nounwind uwtable
define internal ptr @_PyUnicode_NONCOMPACT_DATA(ptr noundef %0) #2 {
  %2 = alloca ptr, align 8
  %3 = alloca ptr, align 8
  store ptr %0, ptr %2, align 8, !tbaa !4
  call void @llvm.lifetime.start.p0(i64 8, ptr %3) #12
  %4 = load ptr, ptr %2, align 8, !tbaa !4
  %5 = getelementptr inbounds nuw %struct.PyUnicodeObject, ptr %4, i32 0, i32 1
  %6 = load ptr, ptr %5, align 8, !tbaa !191
  store ptr %6, ptr %3, align 8, !tbaa !180
  %7 = load ptr, ptr %3, align 8, !tbaa !180
  call void @llvm.lifetime.end.p0(i64 8, ptr %3) #12
  ret ptr %7
}

; Function Attrs: inlinehint nounwind uwtable
define internal ptr @_PyUnicode_COMPACT_DATA(ptr noundef %0) #2 {
  %2 = alloca ptr, align 8
  %3 = alloca ptr, align 8
  store ptr %0, ptr %3, align 8, !tbaa !4
  %4 = load ptr, ptr %3, align 8, !tbaa !4
  %5 = call i32 @PyUnicode_IS_ASCII(ptr noundef %4)
  %6 = icmp ne i32 %5, 0
  br i1 %6, label %7, label %10

7:                                                ; preds = %1
  %8 = load ptr, ptr %3, align 8, !tbaa !4
  %9 = getelementptr %struct.PyASCIIObject, ptr %8, i64 1
  store ptr %9, ptr %2, align 8
  br label %13

10:                                               ; preds = %1
  %11 = load ptr, ptr %3, align 8, !tbaa !4
  %12 = getelementptr %struct.PyCompactUnicodeObject, ptr %11, i64 1
  store ptr %12, ptr %2, align 8
  br label %13

13:                                               ; preds = %10, %7
  %14 = load ptr, ptr %2, align 8
  ret ptr %14
}

; Function Attrs: inlinehint nounwind uwtable
define internal i32 @PyUnicode_IS_COMPACT(ptr noundef %0) #2 {
  %2 = alloca ptr, align 8
  store ptr %0, ptr %2, align 8, !tbaa !4
  %3 = load ptr, ptr %2, align 8, !tbaa !4
  %4 = getelementptr inbounds nuw %struct.PyASCIIObject, ptr %3, i32 0, i32 3
  %5 = getelementptr inbounds nuw %struct.anon.46, ptr %4, i32 0, i32 1
  %6 = load i16, ptr %5, align 2
  %7 = lshr i16 %6, 3
  %8 = and i16 %7, 1
  %9 = zext i16 %8 to i32
  ret i32 %9
}

; Function Attrs: inlinehint nounwind uwtable
define internal ptr @_PyUnicode_DATA(ptr noundef %0) #2 {
  %2 = alloca ptr, align 8
  %3 = alloca ptr, align 8
  store ptr %0, ptr %3, align 8, !tbaa !4
  %4 = load ptr, ptr %3, align 8, !tbaa !4
  %5 = call i32 @PyUnicode_IS_COMPACT(ptr noundef %4)
  %6 = icmp ne i32 %5, 0
  br i1 %6, label %7, label %10

7:                                                ; preds = %1
  %8 = load ptr, ptr %3, align 8, !tbaa !4
  %9 = call ptr @_PyUnicode_COMPACT_DATA(ptr noundef %8)
  store ptr %9, ptr %2, align 8
  br label %13

10:                                               ; preds = %1
  %11 = load ptr, ptr %3, align 8, !tbaa !4
  %12 = call ptr @_PyUnicode_NONCOMPACT_DATA(ptr noundef %11)
  store ptr %12, ptr %2, align 8
  br label %13

13:                                               ; preds = %10, %7
  %14 = load ptr, ptr %2, align 8
  ret ptr %14
}

; Function Attrs: nounwind uwtable
define internal void @unicode_write_cstr(ptr noundef %0, i64 noundef %1, ptr noundef %2, i64 noundef %3) #0 {
  %5 = alloca ptr, align 8
  %6 = alloca i64, align 8
  %7 = alloca ptr, align 8
  %8 = alloca i64, align 8
  %9 = alloca i32, align 4
  %10 = alloca ptr, align 8
  %11 = alloca ptr, align 8
  %12 = alloca ptr, align 8
  %13 = alloca ptr, align 8
  %14 = alloca ptr, align 8
  %15 = alloca ptr, align 8
  store ptr %0, ptr %5, align 8, !tbaa !4
  store i64 %1, ptr %6, align 8, !tbaa !185
  store ptr %2, ptr %7, align 8, !tbaa !189
  store i64 %3, ptr %8, align 8, !tbaa !185
  call void @llvm.lifetime.start.p0(i64 4, ptr %9) #12
  %16 = load ptr, ptr %5, align 8, !tbaa !4
  %17 = getelementptr inbounds nuw %struct.PyASCIIObject, ptr %16, i32 0, i32 3
  %18 = getelementptr inbounds nuw %struct.anon.46, ptr %17, i32 0, i32 1
  %19 = load i16, ptr %18, align 2
  %20 = and i16 %19, 7
  %21 = zext i16 %20 to i32
  store i32 %21, ptr %9, align 4, !tbaa !190
  call void @llvm.lifetime.start.p0(i64 8, ptr %10) #12
  %22 = load ptr, ptr %5, align 8, !tbaa !4
  %23 = call ptr @_PyUnicode_DATA(ptr noundef %22)
  store ptr %23, ptr %10, align 8, !tbaa !180
  call void @llvm.lifetime.start.p0(i64 8, ptr %11) #12
  %24 = load ptr, ptr %7, align 8, !tbaa !189
  %25 = load i64, ptr %8, align 8, !tbaa !185
  %26 = getelementptr i8, ptr %24, i64 %25
  store ptr %26, ptr %11, align 8, !tbaa !189
  %27 = load i32, ptr %9, align 4, !tbaa !190
  switch i32 %27, label %74 [
    i32 1, label %28
    i32 2, label %34
    i32 4, label %54
  ]

28:                                               ; preds = %4
  %29 = load ptr, ptr %10, align 8, !tbaa !180
  %30 = load i64, ptr %6, align 8, !tbaa !185
  %31 = getelementptr i8, ptr %29, i64 %30
  %32 = load ptr, ptr %7, align 8, !tbaa !189
  %33 = load i64, ptr %8, align 8, !tbaa !185
  call void @llvm.memcpy.p0.p0.i64(ptr align 1 %31, ptr align 1 %32, i64 %33, i1 false)
  br label %75

34:                                               ; preds = %4
  call void @llvm.lifetime.start.p0(i64 8, ptr %12) #12
  %35 = load ptr, ptr %10, align 8, !tbaa !180
  %36 = load i64, ptr %6, align 8, !tbaa !185
  %37 = getelementptr i16, ptr %35, i64 %36
  store ptr %37, ptr %12, align 8, !tbaa !206
  call void @llvm.lifetime.start.p0(i64 8, ptr %13) #12
  %38 = load ptr, ptr %12, align 8, !tbaa !206
  store ptr %38, ptr %13, align 8, !tbaa !206
  br label %39

39:                                               ; preds = %48, %34
  %40 = load ptr, ptr %7, align 8, !tbaa !189
  %41 = load ptr, ptr %11, align 8, !tbaa !189
  %42 = icmp ult ptr %40, %41
  br i1 %42, label %43, label %53

43:                                               ; preds = %39
  %44 = load ptr, ptr %7, align 8, !tbaa !189
  %45 = load i8, ptr %44, align 1, !tbaa !191
  %46 = sext i8 %45 to i16
  %47 = load ptr, ptr %13, align 8, !tbaa !206
  store i16 %46, ptr %47, align 2, !tbaa !204
  br label %48

48:                                               ; preds = %43
  %49 = load ptr, ptr %13, align 8, !tbaa !206
  %50 = getelementptr i16, ptr %49, i32 1
  store ptr %50, ptr %13, align 8, !tbaa !206
  %51 = load ptr, ptr %7, align 8, !tbaa !189
  %52 = getelementptr i8, ptr %51, i32 1
  store ptr %52, ptr %7, align 8, !tbaa !189
  br label %39, !llvm.loop !443

53:                                               ; preds = %39
  call void @llvm.lifetime.end.p0(i64 8, ptr %13) #12
  call void @llvm.lifetime.end.p0(i64 8, ptr %12) #12
  br label %75

54:                                               ; preds = %4
  call void @llvm.lifetime.start.p0(i64 8, ptr %14) #12
  %55 = load ptr, ptr %10, align 8, !tbaa !180
  %56 = load i64, ptr %6, align 8, !tbaa !185
  %57 = getelementptr i32, ptr %55, i64 %56
  store ptr %57, ptr %14, align 8, !tbaa !210
  call void @llvm.lifetime.start.p0(i64 8, ptr %15) #12
  %58 = load ptr, ptr %14, align 8, !tbaa !210
  store ptr %58, ptr %15, align 8, !tbaa !210
  br label %59

59:                                               ; preds = %68, %54
  %60 = load ptr, ptr %7, align 8, !tbaa !189
  %61 = load ptr, ptr %11, align 8, !tbaa !189
  %62 = icmp ult ptr %60, %61
  br i1 %62, label %63, label %73

63:                                               ; preds = %59
  %64 = load ptr, ptr %7, align 8, !tbaa !189
  %65 = load i8, ptr %64, align 1, !tbaa !191
  %66 = sext i8 %65 to i32
  %67 = load ptr, ptr %15, align 8, !tbaa !210
  store i32 %66, ptr %67, align 4, !tbaa !190
  br label %68

68:                                               ; preds = %63
  %69 = load ptr, ptr %15, align 8, !tbaa !210
  %70 = getelementptr i32, ptr %69, i32 1
  store ptr %70, ptr %15, align 8, !tbaa !210
  %71 = load ptr, ptr %7, align 8, !tbaa !189
  %72 = getelementptr i8, ptr %71, i32 1
  store ptr %72, ptr %7, align 8, !tbaa !189
  br label %59, !llvm.loop !444

73:                                               ; preds = %59
  call void @llvm.lifetime.end.p0(i64 8, ptr %15) #12
  call void @llvm.lifetime.end.p0(i64 8, ptr %14) #12
  br label %75

74:                                               ; preds = %4
  unreachable

75:                                               ; preds = %73, %53, %28
  call void @llvm.lifetime.end.p0(i64 8, ptr %11) #12
  call void @llvm.lifetime.end.p0(i64 8, ptr %10) #12
  call void @llvm.lifetime.end.p0(i64 4, ptr %9) #12
  ret void
}

; Function Attrs: inlinehint nounwind uwtable
define internal i32 @ucs1lib_find_max_char(ptr noundef %0, ptr noundef %1) #2 {
  %3 = alloca i32, align 4
  %4 = alloca ptr, align 8
  %5 = alloca ptr, align 8
  %6 = alloca ptr, align 8
  %7 = alloca ptr, align 8
  %8 = alloca ptr, align 8
  %9 = alloca i64, align 8
  %10 = alloca i32, align 4
  store ptr %0, ptr %4, align 8, !tbaa !189
  store ptr %1, ptr %5, align 8, !tbaa !189
  call void @llvm.lifetime.start.p0(i64 8, ptr %6) #12
  %11 = load ptr, ptr %4, align 8, !tbaa !189
  store ptr %11, ptr %6, align 8, !tbaa !189
  call void @llvm.lifetime.start.p0(i64 8, ptr %7) #12
  %12 = load ptr, ptr %5, align 8, !tbaa !189
  store ptr %12, ptr %7, align 8, !tbaa !189
  br label %13

13:                                               ; preds = %60, %2
  %14 = load ptr, ptr %6, align 8, !tbaa !189
  %15 = load ptr, ptr %7, align 8, !tbaa !189
  %16 = icmp ult ptr %14, %15
  br i1 %16, label %17, label %61

17:                                               ; preds = %13
  %18 = load ptr, ptr %6, align 8, !tbaa !189
  %19 = ptrtoint ptr %18 to i64
  %20 = and i64 %19, 7
  %21 = icmp ne i64 %20, 0
  br i1 %21, label %52, label %22

22:                                               ; preds = %17
  call void @llvm.lifetime.start.p0(i64 8, ptr %8) #12
  %23 = load ptr, ptr %6, align 8, !tbaa !189
  store ptr %23, ptr %8, align 8, !tbaa !189
  br label %24

24:                                               ; preds = %41, %22
  %25 = load ptr, ptr %8, align 8, !tbaa !189
  %26 = getelementptr i8, ptr %25, i64 8
  %27 = load ptr, ptr %7, align 8, !tbaa !189
  %28 = icmp ule ptr %26, %27
  br i1 %28, label %29, label %42

29:                                               ; preds = %24
  call void @llvm.lifetime.start.p0(i64 8, ptr %9) #12
  %30 = load ptr, ptr %8, align 8, !tbaa !189
  %31 = load i64, ptr %30, align 8, !tbaa !185
  store i64 %31, ptr %9, align 8, !tbaa !185
  %32 = load i64, ptr %9, align 8, !tbaa !185
  %33 = and i64 %32, -9187201950435737472
  %34 = icmp ne i64 %33, 0
  br i1 %34, label %35, label %36

35:                                               ; preds = %29
  store i32 255, ptr %3, align 4
  store i32 1, ptr %10, align 4
  br label %39

36:                                               ; preds = %29
  %37 = load ptr, ptr %8, align 8, !tbaa !189
  %38 = getelementptr i8, ptr %37, i64 8
  store ptr %38, ptr %8, align 8, !tbaa !189
  store i32 0, ptr %10, align 4
  br label %39

39:                                               ; preds = %36, %35
  call void @llvm.lifetime.end.p0(i64 8, ptr %9) #12
  %40 = load i32, ptr %10, align 4
  switch i32 %40, label %49 [
    i32 0, label %41
  ]

41:                                               ; preds = %39
  br label %24, !llvm.loop !269

42:                                               ; preds = %24
  %43 = load ptr, ptr %8, align 8, !tbaa !189
  store ptr %43, ptr %6, align 8, !tbaa !189
  %44 = load ptr, ptr %6, align 8, !tbaa !189
  %45 = load ptr, ptr %7, align 8, !tbaa !189
  %46 = icmp eq ptr %44, %45
  br i1 %46, label %47, label %48

47:                                               ; preds = %42
  store i32 3, ptr %10, align 4
  br label %49

48:                                               ; preds = %42
  store i32 0, ptr %10, align 4
  br label %49

49:                                               ; preds = %48, %47, %39
  call void @llvm.lifetime.end.p0(i64 8, ptr %8) #12
  %50 = load i32, ptr %10, align 4
  switch i32 %50, label %62 [
    i32 0, label %51
    i32 3, label %61
  ]

51:                                               ; preds = %49
  br label %52

52:                                               ; preds = %51, %17
  %53 = load ptr, ptr %6, align 8, !tbaa !189
  %54 = getelementptr i8, ptr %53, i32 1
  store ptr %54, ptr %6, align 8, !tbaa !189
  %55 = load i8, ptr %53, align 1, !tbaa !191
  %56 = zext i8 %55 to i32
  %57 = and i32 %56, 128
  %58 = icmp ne i32 %57, 0
  br i1 %58, label %59, label %60

59:                                               ; preds = %52
  store i32 255, ptr %3, align 4
  store i32 1, ptr %10, align 4
  br label %62

60:                                               ; preds = %52
  br label %13, !llvm.loop !270

61:                                               ; preds = %49, %13
  store i32 127, ptr %3, align 4
  store i32 1, ptr %10, align 4
  br label %62

62:                                               ; preds = %61, %59, %49
  call void @llvm.lifetime.end.p0(i64 8, ptr %7) #12
  call void @llvm.lifetime.end.p0(i64 8, ptr %6) #12
  %63 = load i32, ptr %3, align 4
  ret i32 %63
}

; Function Attrs: nounwind uwtable
define dso_local i32 @_PyUnicodeWriter_WriteLatin1String(ptr noundef %0, ptr noundef %1, i64 noundef %2) #0 {
  %4 = alloca i32, align 4
  %5 = alloca ptr, align 8
  %6 = alloca ptr, align 8
  %7 = alloca i64, align 8
  %8 = alloca i32, align 4
  %9 = alloca i32, align 4
  store ptr %0, ptr %5, align 8, !tbaa !180
  store ptr %1, ptr %6, align 8, !tbaa !189
  store i64 %2, ptr %7, align 8, !tbaa !185
  call void @llvm.lifetime.start.p0(i64 4, ptr %8) #12
  %10 = load ptr, ptr %6, align 8, !tbaa !189
  %11 = load ptr, ptr %6, align 8, !tbaa !189
  %12 = load i64, ptr %7, align 8, !tbaa !185
  %13 = getelementptr i8, ptr %11, i64 %12
  %14 = call i32 @ucs1lib_find_max_char(ptr noundef %10, ptr noundef %13)
  store i32 %14, ptr %8, align 4, !tbaa !190
  %15 = load i32, ptr %8, align 4, !tbaa !190
  %16 = load ptr, ptr %5, align 8, !tbaa !180
  %17 = getelementptr inbounds nuw %struct._PyUnicodeWriter, ptr %16, i32 0, i32 3
  %18 = load i32, ptr %17, align 4, !tbaa !232
  %19 = icmp ule i32 %15, %18
  br i1 %19, label %20, label %31

20:                                               ; preds = %3
  %21 = load i64, ptr %7, align 8, !tbaa !185
  %22 = load ptr, ptr %5, align 8, !tbaa !180
  %23 = getelementptr inbounds nuw %struct._PyUnicodeWriter, ptr %22, i32 0, i32 4
  %24 = load i64, ptr %23, align 8, !tbaa !234
  %25 = load ptr, ptr %5, align 8, !tbaa !180
  %26 = getelementptr inbounds nuw %struct._PyUnicodeWriter, ptr %25, i32 0, i32 5
  %27 = load i64, ptr %26, align 8, !tbaa !235
  %28 = sub i64 %24, %27
  %29 = icmp sle i64 %21, %28
  br i1 %29, label %30, label %31

30:                                               ; preds = %20
  br label %42

31:                                               ; preds = %20, %3
  %32 = load i64, ptr %7, align 8, !tbaa !185
  %33 = icmp eq i64 %32, 0
  br i1 %33, label %34, label %35

34:                                               ; preds = %31
  br label %40

35:                                               ; preds = %31
  %36 = load ptr, ptr %5, align 8, !tbaa !180
  %37 = load i64, ptr %7, align 8, !tbaa !185
  %38 = load i32, ptr %8, align 4, !tbaa !190
  %39 = call i32 @_PyUnicodeWriter_PrepareInternal(ptr noundef %36, i64 noundef %37, i32 noundef %38)
  br label %40

40:                                               ; preds = %35, %34
  %41 = phi i32 [ 0, %34 ], [ %39, %35 ]
  br label %42

42:                                               ; preds = %40, %30
  %43 = phi i32 [ 0, %30 ], [ %41, %40 ]
  %44 = icmp eq i32 %43, -1
  br i1 %44, label %45, label %46

45:                                               ; preds = %42
  store i32 -1, ptr %4, align 4
  store i32 1, ptr %9, align 4
  br label %60

46:                                               ; preds = %42
  %47 = load ptr, ptr %5, align 8, !tbaa !180
  %48 = getelementptr inbounds nuw %struct._PyUnicodeWriter, ptr %47, i32 0, i32 0
  %49 = load ptr, ptr %48, align 8, !tbaa !239
  %50 = load ptr, ptr %5, align 8, !tbaa !180
  %51 = getelementptr inbounds nuw %struct._PyUnicodeWriter, ptr %50, i32 0, i32 5
  %52 = load i64, ptr %51, align 8, !tbaa !235
  %53 = load ptr, ptr %6, align 8, !tbaa !189
  %54 = load i64, ptr %7, align 8, !tbaa !185
  call void @unicode_write_cstr(ptr noundef %49, i64 noundef %52, ptr noundef %53, i64 noundef %54)
  %55 = load i64, ptr %7, align 8, !tbaa !185
  %56 = load ptr, ptr %5, align 8, !tbaa !180
  %57 = getelementptr inbounds nuw %struct._PyUnicodeWriter, ptr %56, i32 0, i32 5
  %58 = load i64, ptr %57, align 8, !tbaa !235
  %59 = add i64 %58, %55
  store i64 %59, ptr %57, align 8, !tbaa !235
  store i32 0, ptr %4, align 4
  store i32 1, ptr %9, align 4
  br label %60

60:                                               ; preds = %46, %45
  call void @llvm.lifetime.end.p0(i64 4, ptr %8) #12
  %61 = load i32, ptr %4, align 4
  ret i32 %61
}