; Function Attrs: nounwind uwtable
define dso_local range(i32 -1, 1) i32 @_PyUnicodeWriter_WriteLatin1String(ptr noundef captures(none) %0, ptr noundef %1, i64 noundef %2) local_unnamed_addr #0 {
  %4 = getelementptr i8, ptr %1, i64 %2
  br label %5

5:                                                ; preds = %.thread31.i, %3
  %.021.i = phi ptr [ %1, %3 ], [ %16, %.thread31.i ]
  %6 = icmp ult ptr %.021.i, %4
  br i1 %6, label %7, label %ucs1lib_find_max_char.exit

7:                                                ; preds = %5
  %8 = ptrtoint ptr %.021.i to i64
  %9 = and i64 %8, 7
  %.not.i = icmp eq i64 %9, 0
  br i1 %.not.i, label %.preheader.i, label %.thread31.i

.preheader.i:                                     ; preds = %7, %11
  %.019.i = phi ptr [ %10, %11 ], [ %.021.i, %7 ]
  %10 = getelementptr i8, ptr %.019.i, i64 8
  %.not26.i = icmp ugt ptr %10, %4
  br i1 %.not26.i, label %14, label %11

11:                                               ; preds = %.preheader.i
  %12 = load i64, ptr %.019.i, align 8, !tbaa !182
  %13 = and i64 %12, -9187201950435737472
  %.not27.i = icmp eq i64 %13, 0
  br i1 %.not27.i, label %.preheader.i, label %ucs1lib_find_max_char.exit, !llvm.loop !202

14:                                               ; preds = %.preheader.i
  %15 = icmp eq ptr %.019.i, %4
  br i1 %15, label %ucs1lib_find_max_char.exit, label %.thread31.i

.thread31.i:                                      ; preds = %14, %7
  %.122.i = phi ptr [ %.021.i, %7 ], [ %.019.i, %14 ]
  %16 = getelementptr i8, ptr %.122.i, i64 1
  %17 = load i8, ptr %.122.i, align 1, !tbaa !195
  %.not28.i = icmp sgt i8 %17, -1
  br i1 %.not28.i, label %5, label %ucs1lib_find_max_char.exit, !llvm.loop !203

ucs1lib_find_max_char.exit:                       ; preds = %5, %14, %.thread31.i, %11
  %.5.i = phi i32 [ 255, %11 ], [ 255, %.thread31.i ], [ 127, %14 ], [ 127, %5 ]
  %18 = getelementptr inbounds nuw i8, ptr %0, i64 20
  %19 = load i32, ptr %18, align 4, !tbaa !222
  %.not = icmp ugt i32 %.5.i, %19
  br i1 %.not, label %28, label %20

20:                                               ; preds = %ucs1lib_find_max_char.exit
  %21 = getelementptr inbounds nuw i8, ptr %0, i64 24
  %22 = load i64, ptr %21, align 8, !tbaa !224
  %23 = getelementptr inbounds nuw i8, ptr %0, i64 32
  %24 = load i64, ptr %23, align 8, !tbaa !225
  %25 = sub i64 %22, %24
  %26 = icmp sle i64 %2, %25
  %27 = icmp eq i64 %2, 0
  %or.cond = or i1 %27, %26
  br i1 %or.cond, label %.critedge, label %.split20

28:                                               ; preds = %ucs1lib_find_max_char.exit
  %.old1 = icmp eq i64 %2, 0
  br i1 %.old1, label %.critedge, label %.split20

.split20:                                         ; preds = %28, %20
  %29 = tail call i32 @_PyUnicodeWriter_PrepareInternal(ptr noundef nonnull %0, i64 noundef %2, i32 noundef %.5.i)
  %30 = icmp eq i32 %29, -1
  br i1 %30, label %61, label %.critedge

.critedge:                                        ; preds = %20, %28, %.split20
  %31 = load ptr, ptr %0, align 8, !tbaa !229
  %32 = getelementptr inbounds nuw i8, ptr %0, i64 32
  %33 = load i64, ptr %32, align 8, !tbaa !225
  %34 = getelementptr inbounds nuw i8, ptr %31, i64 34
  %35 = load i16, ptr %34, align 2
  %36 = and i16 %35, 7
  %37 = and i16 %35, 8
  %.not.i.i = icmp eq i16 %37, 0
  br i1 %.not.i.i, label %40, label %38

38:                                               ; preds = %.critedge
  %39 = and i16 %35, 16
  %.not.i.i.i = icmp eq i16 %39, 0
  %.0.v.i.i.i = select i1 %.not.i.i.i, i64 56, i64 40
  %.0.i.i.i = getelementptr i8, ptr %31, i64 %.0.v.i.i.i
  br label %_PyUnicode_DATA.exit.i

40:                                               ; preds = %.critedge
  %41 = getelementptr i8, ptr %31, i64 56
  %.val4.i.i = load ptr, ptr %41, align 8, !tbaa !195
  br label %_PyUnicode_DATA.exit.i

_PyUnicode_DATA.exit.i:                           ; preds = %40, %38
  %.0.i.i = phi ptr [ %.0.i.i.i, %38 ], [ %.val4.i.i, %40 ]
  switch i16 %36, label %58 [
    i16 1, label %42
    i16 2, label %44
    i16 4, label %51
  ]

42:                                               ; preds = %_PyUnicode_DATA.exit.i
  %43 = getelementptr i8, ptr %.0.i.i, i64 %33
  tail call void @llvm.memcpy.p0.p0.i64(ptr align 1 %43, ptr readonly align 1 %1, i64 %2, i1 false)
  %.pre = load i64, ptr %32, align 8, !tbaa !225
  br label %unicode_write_cstr.exit

44:                                               ; preds = %_PyUnicode_DATA.exit.i
  %45 = icmp ult ptr %1, %4
  br i1 %45, label %.lr.ph33.preheader.i, label %unicode_write_cstr.exit

.lr.ph33.preheader.i:                             ; preds = %44
  %46 = getelementptr i16, ptr %.0.i.i, i64 %33
  br label %.lr.ph33.i

.lr.ph33.i:                                       ; preds = %.lr.ph33.i, %.lr.ph33.preheader.i
  %.02632.i = phi ptr [ %50, %.lr.ph33.i ], [ %1, %.lr.ph33.preheader.i ]
  %.02731.i = phi ptr [ %49, %.lr.ph33.i ], [ %46, %.lr.ph33.preheader.i ]
  %47 = load i8, ptr %.02632.i, align 1, !tbaa !195
  %48 = sext i8 %47 to i16
  store i16 %48, ptr %.02731.i, align 2, !tbaa !199
  %49 = getelementptr i8, ptr %.02731.i, i64 2
  %50 = getelementptr i8, ptr %.02632.i, i64 1
  %exitcond35.not.i = icmp eq ptr %50, %4
  br i1 %exitcond35.not.i, label %unicode_write_cstr.exit, label %.lr.ph33.i, !llvm.loop !469

51:                                               ; preds = %_PyUnicode_DATA.exit.i
  %52 = icmp ult ptr %1, %4
  br i1 %52, label %.lr.ph.preheader.i, label %unicode_write_cstr.exit

.lr.ph.preheader.i:                               ; preds = %51
  %53 = getelementptr i32, ptr %.0.i.i, i64 %33
  br label %.lr.ph.i

.lr.ph.i:                                         ; preds = %.lr.ph.i, %.lr.ph.preheader.i
  %.030.i = phi ptr [ %56, %.lr.ph.i ], [ %53, %.lr.ph.preheader.i ]
  %.129.i = phi ptr [ %57, %.lr.ph.i ], [ %1, %.lr.ph.preheader.i ]
  %54 = load i8, ptr %.129.i, align 1, !tbaa !195
  %55 = sext i8 %54 to i32
  store i32 %55, ptr %.030.i, align 4, !tbaa !200
  %56 = getelementptr i8, ptr %.030.i, i64 4
  %57 = getelementptr i8, ptr %.129.i, i64 1
  %exitcond.not.i = icmp eq ptr %57, %4
  br i1 %exitcond.not.i, label %unicode_write_cstr.exit, label %.lr.ph.i, !llvm.loop !470

58:                                               ; preds = %_PyUnicode_DATA.exit.i
  unreachable

unicode_write_cstr.exit:                          ; preds = %.lr.ph.i, %.lr.ph33.i, %42, %44, %51
  %59 = phi i64 [ %.pre, %42 ], [ %33, %44 ], [ %33, %51 ], [ %33, %.lr.ph33.i ], [ %33, %.lr.ph.i ]
  %60 = add i64 %59, %2
  store i64 %60, ptr %32, align 8, !tbaa !225
  br label %61

61:                                               ; preds = %.split20, %unicode_write_cstr.exit
  %.0 = phi i32 [ 0, %unicode_write_cstr.exit ], [ -1, %.split20 ]
  ret i32 %.0
}